; Function Attrs: mustprogress nounwind uwtable
define dso_local noundef ptr @_ZNK4llvm17X86TargetLowering28getPICJumpTableRelocBaseExprEPKNS_15MachineFunctionEjRNS_9MCContextE(ptr noundef nonnull align 8 dereferenceable(408160) %0, ptr noundef %1, i32 noundef %2, ptr noundef nonnull align 8 dereferenceable(2432) %3) unnamed_addr #0 align 2 {
  %5 = getelementptr inbounds nuw i8, ptr %0, i64 408128
  %6 = load ptr, ptr %5, align 8
  %7 = getelementptr inbounds nuw i8, ptr %6, i64 288
  %8 = load i32, ptr %7, align 8
  %9 = icmp eq i32 %8, 2
  br i1 %9, label %20, label %10

10:                                               ; preds = %4
  %11 = getelementptr inbounds nuw i8, ptr %6, i64 455
  %12 = load i8, ptr %11, align 1
  %13 = trunc i8 %12 to i1
  br i1 %13, label %14, label %22

14:                                               ; preds = %10
  %15 = getelementptr inbounds nuw i8, ptr %0, i64 8
  %16 = load ptr, ptr %15, align 8
  %17 = getelementptr inbounds nuw i8, ptr %16, i64 652
  %18 = load i32, ptr %17, align 4
  %19 = icmp eq i32 %18, 4
  br i1 %19, label %20, label %22

20:                                               ; preds = %14, %4
  %21 = tail call noundef ptr @_ZNK4llvm14TargetLowering28getPICJumpTableRelocBaseExprEPKNS_15MachineFunctionEjRNS_9MCContextE(ptr noundef nonnull align 8 dereferenceable(408123) %0, ptr noundef %1, i32 noundef %2, ptr noundef nonnull align 8 dereferenceable(2432) %3) #23
  br label %25

22:                                               ; preds = %14, %10
  %23 = tail call noundef ptr @_ZNK4llvm15MachineFunction16getPICBaseSymbolEv(ptr noundef nonnull align 8 dereferenceable(1041) %1) #23
  %24 = tail call noundef ptr @_ZN4llvm15MCSymbolRefExpr6createEPKNS_8MCSymbolENS0_11VariantKindERNS_9MCContextENS_5SMLocE(ptr noundef %23, i16 noundef zeroext 0, ptr noundef nonnull align 8 dereferenceable(2432) %3, ptr null) #23
  br label %25

25:                                               ; preds = %22, %20
  %.0 = phi ptr [ %21, %20 ], [ %24, %22 ]
  ret ptr %.0
}